target datalayout = "e-m:e-p270:32:32-p271:32:32-p272:64:64-i64:64-i128:128-f80:128-n8:16:32:64-S128"
target triple = "x86_64-pc-linux-gnu"

%struct._lv_table_t = type { %struct._lv_obj_t, i32, i32, ptr, ptr, ptr, i32, i32 }
%struct._lv_obj_t = type { ptr, ptr, ptr, ptr, ptr, %struct.lv_area_t, i32, i16, i16 }
%struct.lv_area_t = type { i32, i32, i32, i32 }
%union.lv_style_value_t = type { ptr }

; Function Attrs: inlinehint nounwind uwtable
define internal i32 @lv_obj_get_style_max_height(ptr noundef %0, i32 noundef %1) #4 {
  %3 = alloca ptr, align 8
  %4 = alloca i32, align 4
  %5 = alloca %union.lv_style_value_t, align 8
  store ptr %0, ptr %3, align 8, !tbaa !8
  store i32 %1, ptr %4, align 4, !tbaa !25
  call void @llvm.lifetime.start.p0(i64 8, ptr %5) #6
  %6 = load ptr, ptr %3, align 8, !tbaa !8
  %7 = load i32, ptr %4, align 4, !tbaa !25
  %8 = call ptr @lv_obj_get_style_prop(ptr noundef %6, i32 noundef %7, i8 noundef zeroext 7)
  %9 = getelementptr inbounds nuw %union.lv_style_value_t, ptr %5, i32 0, i32 0
  store ptr %8, ptr %9, align 8
  %10 = load i32, ptr %5, align 8, !tbaa !59
  call void @llvm.lifetime.end.p0(i64 8, ptr %5) #6
  ret i32 %10
}

; Function Attrs: inlinehint nounwind uwtable
define internal i32 @lv_obj_get_style_min_height(ptr noundef %0, i32 noundef %1) #4 {
  %3 = alloca ptr, align 8
  %4 = alloca i32, align 4
  %5 = alloca %union.lv_style_value_t, align 8
  store ptr %0, ptr %3, align 8, !tbaa !8
  store i32 %1, ptr %4, align 4, !tbaa !25
  call void @llvm.lifetime.start.p0(i64 8, ptr %5) #6
  %6 = load ptr, ptr %3, align 8, !tbaa !8
  %7 = load i32, ptr %4, align 4, !tbaa !25
  %8 = call ptr @lv_obj_get_style_prop(ptr noundef %6, i32 noundef %7, i8 noundef zeroext 6)
  %9 = getelementptr inbounds nuw %union.lv_style_value_t, ptr %5, i32 0, i32 0
  store ptr %8, ptr %9, align 8
  %10 = load i32, ptr %5, align 8, !tbaa !59
  call void @llvm.lifetime.end.p0(i64 8, ptr %5) #6
  ret i32 %10
}

; Function Attrs: inlinehint nounwind uwtable
define internal ptr @lv_obj_get_style_text_font(ptr noundef %0, i32 noundef %1) #4 {
  %3 = alloca ptr, align 8
  %4 = alloca i32, align 4
  %5 = alloca %union.lv_style_value_t, align 8
  store ptr %0, ptr %3, align 8, !tbaa !8
  store i32 %1, ptr %4, align 4, !tbaa !25
  call void @llvm.lifetime.start.p0(i64 8, ptr %5) #6
  %6 = load ptr, ptr %3, align 8, !tbaa !8
  %7 = load i32, ptr %4, align 4, !tbaa !25
  %8 = call ptr @lv_obj_get_style_prop(ptr noundef %6, i32 noundef %7, i8 noundef zeroext 90)
  %9 = getelementptr inbounds nuw %union.lv_style_value_t, ptr %5, i32 0, i32 0
  store ptr %8, ptr %9, align 8
  %10 = load ptr, ptr %5, align 8, !tbaa !59
  call void @llvm.lifetime.end.p0(i64 8, ptr %5) #6
  ret ptr %10
}

; Function Attrs: inlinehint nounwind uwtable
define internal i32 @lv_obj_get_style_text_line_space(ptr noundef %0, i32 noundef %1) #4 {
  %3 = alloca ptr, align 8
  %4 = alloca i32, align 4
  %5 = alloca %union.lv_style_value_t, align 8
  store ptr %0, ptr %3, align 8, !tbaa !8
  store i32 %1, ptr %4, align 4, !tbaa !25
  call void @llvm.lifetime.start.p0(i64 8, ptr %5) #6
  %6 = load ptr, ptr %3, align 8, !tbaa !8
  %7 = load i32, ptr %4, align 4, !tbaa !25
  %8 = call ptr @lv_obj_get_style_prop(ptr noundef %6, i32 noundef %7, i8 noundef zeroext 92)
  %9 = getelementptr inbounds nuw %union.lv_style_value_t, ptr %5, i32 0, i32 0
  store ptr %8, ptr %9, align 8
  %10 = load i32, ptr %5, align 8, !tbaa !59
  call void @llvm.lifetime.end.p0(i64 8, ptr %5) #6
  ret i32 %10
}

; Function Attrs: inlinehint nounwind uwtable
define internal i32 @lv_obj_get_style_text_letter_space(ptr noundef %0, i32 noundef %1) #4 {
  %3 = alloca ptr, align 8
  %4 = alloca i32, align 4
  %5 = alloca %union.lv_style_value_t, align 8
  store ptr %0, ptr %3, align 8, !tbaa !8
  store i32 %1, ptr %4, align 4, !tbaa !25
  call void @llvm.lifetime.start.p0(i64 8, ptr %5) #6
  %6 = load ptr, ptr %3, align 8, !tbaa !8
  %7 = load i32, ptr %4, align 4, !tbaa !25
  %8 = call ptr @lv_obj_get_style_prop(ptr noundef %6, i32 noundef %7, i8 noundef zeroext 91)
  %9 = getelementptr inbounds nuw %union.lv_style_value_t, ptr %5, i32 0, i32 0
  store ptr %8, ptr %9, align 8
  %10 = load i32, ptr %5, align 8, !tbaa !59
  call void @llvm.lifetime.end.p0(i64 8, ptr %5) #6
  ret i32 %10
}

; Function Attrs: inlinehint nounwind uwtable
define internal i32 @lv_obj_get_style_pad_bottom(ptr noundef %0, i32 noundef %1) #4 {
  %3 = alloca ptr, align 8
  %4 = alloca i32, align 4
  %5 = alloca %union.lv_style_value_t, align 8
  store ptr %0, ptr %3, align 8, !tbaa !8
  store i32 %1, ptr %4, align 4, !tbaa !25
  call void @llvm.lifetime.start.p0(i64 8, ptr %5) #6
  %6 = load ptr, ptr %3, align 8, !tbaa !8
  %7 = load i32, ptr %4, align 4, !tbaa !25
  %8 = call ptr @lv_obj_get_style_prop(ptr noundef %6, i32 noundef %7, i8 noundef zeroext 17)
  %9 = getelementptr inbounds nuw %union.lv_style_value_t, ptr %5, i32 0, i32 0
  store ptr %8, ptr %9, align 8
  %10 = load i32, ptr %5, align 8, !tbaa !59
  call void @llvm.lifetime.end.p0(i64 8, ptr %5) #6
  ret i32 %10
}

; Function Attrs: inlinehint nounwind uwtable
define internal i32 @lv_obj_get_style_pad_top(ptr noundef %0, i32 noundef %1) #4 {
  %3 = alloca ptr, align 8
  %4 = alloca i32, align 4
  %5 = alloca %union.lv_style_value_t, align 8
  store ptr %0, ptr %3, align 8, !tbaa !8
  store i32 %1, ptr %4, align 4, !tbaa !25
  call void @llvm.lifetime.start.p0(i64 8, ptr %5) #6
  %6 = load ptr, ptr %3, align 8, !tbaa !8
  %7 = load i32, ptr %4, align 4, !tbaa !25
  %8 = call ptr @lv_obj_get_style_prop(ptr noundef %6, i32 noundef %7, i8 noundef zeroext 16)
  %9 = getelementptr inbounds nuw %union.lv_style_value_t, ptr %5, i32 0, i32 0
  store ptr %8, ptr %9, align 8
  %10 = load i32, ptr %5, align 8, !tbaa !59
  call void @llvm.lifetime.end.p0(i64 8, ptr %5) #6
  ret i32 %10
}

; Function Attrs: inlinehint nounwind uwtable
define internal i32 @lv_obj_get_style_pad_right(ptr noundef %0, i32 noundef %1) #4 {
  %3 = alloca ptr, align 8
  %4 = alloca i32, align 4
  %5 = alloca %union.lv_style_value_t, align 8
  store ptr %0, ptr %3, align 8, !tbaa !8
  store i32 %1, ptr %4, align 4, !tbaa !25
  call void @llvm.lifetime.start.p0(i64 8, ptr %5) #6
  %6 = load ptr, ptr %3, align 8, !tbaa !8
  %7 = load i32, ptr %4, align 4, !tbaa !25
  %8 = call ptr @lv_obj_get_style_prop(ptr noundef %6, i32 noundef %7, i8 noundef zeroext 19)
  %9 = getelementptr inbounds nuw %union.lv_style_value_t, ptr %5, i32 0, i32 0
  store ptr %8, ptr %9, align 8
  %10 = load i32, ptr %5, align 8, !tbaa !59
  call void @llvm.lifetime.end.p0(i64 8, ptr %5) #6
  ret i32 %10
}

; Function Attrs: inlinehint nounwind uwtable
define internal i32 @lv_obj_get_style_pad_left(ptr noundef %0, i32 noundef %1) #4 {
  %3 = alloca ptr, align 8
  %4 = alloca i32, align 4
  %5 = alloca %union.lv_style_value_t, align 8
  store ptr %0, ptr %3, align 8, !tbaa !8
  store i32 %1, ptr %4, align 4, !tbaa !25
  call void @llvm.lifetime.start.p0(i64 8, ptr %5) #6
  %6 = load ptr, ptr %3, align 8, !tbaa !8
  %7 = load i32, ptr %4, align 4, !tbaa !25
  %8 = call ptr @lv_obj_get_style_prop(ptr noundef %6, i32 noundef %7, i8 noundef zeroext 18)
  %9 = getelementptr inbounds nuw %union.lv_style_value_t, ptr %5, i32 0, i32 0
  store ptr %8, ptr %9, align 8
  %10 = load i32, ptr %5, align 8, !tbaa !59
  call void @llvm.lifetime.end.p0(i64 8, ptr %5) #6
  ret i32 %10
}

; Function Attrs: nounwind uwtable
define internal void @refr_cell_size(ptr noundef %0, i32 noundef %1, i32 noundef %2) #0 {
  %4 = alloca ptr, align 8
  %5 = alloca i32, align 4
  %6 = alloca i32, align 4
  %7 = alloca i32, align 4
  %8 = alloca i32, align 4
  %9 = alloca i32, align 4
  %10 = alloca i32, align 4
  %11 = alloca i32, align 4
  %12 = alloca i32, align 4
  %13 = alloca ptr, align 8
  %14 = alloca i32, align 4
  %15 = alloca i32, align 4
  %16 = alloca ptr, align 8
  %17 = alloca i32, align 4
  %18 = alloca i32, align 4
  %19 = alloca %struct.lv_area_t, align 4
  store ptr %0, ptr %4, align 8, !tbaa !8
  store i32 %1, ptr %5, align 4, !tbaa !25
  store i32 %2, ptr %6, align 4, !tbaa !25
  call void @llvm.lifetime.start.p0(i64 4, ptr %7) #6
  %20 = load ptr, ptr %4, align 8, !tbaa !8
  %21 = call i32 @lv_obj_get_style_pad_left(ptr noundef %20, i32 noundef 327680)
  store i32 %21, ptr %7, align 4, !tbaa !25
  call void @llvm.lifetime.start.p0(i64 4, ptr %8) #6
  %22 = load ptr, ptr %4, align 8, !tbaa !8
  %23 = call i32 @lv_obj_get_style_pad_right(ptr noundef %22, i32 noundef 327680)
  store i32 %23, ptr %8, align 4, !tbaa !25
  call void @llvm.lifetime.start.p0(i64 4, ptr %9) #6
  %24 = load ptr, ptr %4, align 8, !tbaa !8
  %25 = call i32 @lv_obj_get_style_pad_top(ptr noundef %24, i32 noundef 327680)
  store i32 %25, ptr %9, align 4, !tbaa !25
  call void @llvm.lifetime.start.p0(i64 4, ptr %10) #6
  %26 = load ptr, ptr %4, align 8, !tbaa !8
  %27 = call i32 @lv_obj_get_style_pad_bottom(ptr noundef %26, i32 noundef 327680)
  store i32 %27, ptr %10, align 4, !tbaa !25
  call void @llvm.lifetime.start.p0(i64 4, ptr %11) #6
  %28 = load ptr, ptr %4, align 8, !tbaa !8
  %29 = call i32 @lv_obj_get_style_text_letter_space(ptr noundef %28, i32 noundef 327680)
  store i32 %29, ptr %11, align 4, !tbaa !25
  call void @llvm.lifetime.start.p0(i64 4, ptr %12) #6
  %30 = load ptr, ptr %4, align 8, !tbaa !8
  %31 = call i32 @lv_obj_get_style_text_line_space(ptr noundef %30, i32 noundef 327680)
  store i32 %31, ptr %12, align 4, !tbaa !25
  call void @llvm.lifetime.start.p0(i64 8, ptr %13) #6
  %32 = load ptr, ptr %4, align 8, !tbaa !8
  %33 = call ptr @lv_obj_get_style_text_font(ptr noundef %32, i32 noundef 327680)
  store ptr %33, ptr %13, align 8, !tbaa !55
  call void @llvm.lifetime.start.p0(i64 4, ptr %14) #6
  %34 = load ptr, ptr %4, align 8, !tbaa !8
  %35 = call i32 @lv_obj_get_style_min_height(ptr noundef %34, i32 noundef 327680)
  store i32 %35, ptr %14, align 4, !tbaa !25
  call void @llvm.lifetime.start.p0(i64 4, ptr %15) #6
  %36 = load ptr, ptr %4, align 8, !tbaa !8
  %37 = call i32 @lv_obj_get_style_max_height(ptr noundef %36, i32 noundef 327680)
  store i32 %37, ptr %15, align 4, !tbaa !25
  call void @llvm.lifetime.start.p0(i64 8, ptr %16) #6
  %38 = load ptr, ptr %4, align 8, !tbaa !8
  store ptr %38, ptr %16, align 8, !tbaa !10
  call void @llvm.lifetime.start.p0(i64 4, ptr %17) #6
  %39 = load ptr, ptr %4, align 8, !tbaa !8
  %40 = load i32, ptr %5, align 4, !tbaa !25
  %41 = load ptr, ptr %13, align 8, !tbaa !55
  %42 = load i32, ptr %11, align 4, !tbaa !25
  %43 = load i32, ptr %12, align 4, !tbaa !25
  %44 = load i32, ptr %7, align 4, !tbaa !25
  %45 = load i32, ptr %8, align 4, !tbaa !25
  %46 = load i32, ptr %9, align 4, !tbaa !25
  %47 = load i32, ptr %10, align 4, !tbaa !25
  %48 = call i32 @get_row_height(ptr noundef %39, i32 noundef %40, ptr noundef %41, i32 noundef %42, i32 noundef %43, i32 noundef %44, i32 noundef %45, i32 noundef %46, i32 noundef %47)
  store i32 %48, ptr %17, align 4, !tbaa !25
  call void @llvm.lifetime.start.p0(i64 4, ptr %18) #6
  %49 = load ptr, ptr %16, align 8, !tbaa !10
  %50 = getelementptr inbounds nuw %struct._lv_table_t, ptr %49, i32 0, i32 4
  %51 = load ptr, ptr %50, align 8, !tbaa !24
  %52 = load i32, ptr %5, align 4, !tbaa !25
  %53 = zext i32 %52 to i64
  %54 = getelementptr inbounds nuw i32, ptr %51, i64 %53
  %55 = load i32, ptr %54, align 4, !tbaa !25
  store i32 %55, ptr %18, align 4, !tbaa !25
  %56 = load i32, ptr %14, align 4, !tbaa !25
  %57 = load i32, ptr %17, align 4, !tbaa !25
  %58 = load i32, ptr %15, align 4, !tbaa !25
  %59 = icmp slt i32 %57, %58
  br i1 %59, label %60, label %62

60:                                               ; preds = %3
  %61 = load i32, ptr %17, align 4, !tbaa !25
  br label %64

62:                                               ; preds = %3
  %63 = load i32, ptr %15, align 4, !tbaa !25
  br label %64

64:                                               ; preds = %62, %60
  %65 = phi i32 [ %61, %60 ], [ %63, %62 ]
  %66 = icmp sgt i32 %56, %65
  br i1 %66, label %67, label %69

67:                                               ; preds = %64
  %68 = load i32, ptr %14, align 4, !tbaa !25
  br label %79

69:                                               ; preds = %64
  %70 = load i32, ptr %17, align 4, !tbaa !25
  %71 = load i32, ptr %15, align 4, !tbaa !25
  %72 = icmp slt i32 %70, %71
  br i1 %72, label %73, label %75

73:                                               ; preds = %69
  %74 = load i32, ptr %17, align 4, !tbaa !25
  br label %77

75:                                               ; preds = %69
  %76 = load i32, ptr %15, align 4, !tbaa !25
  br label %77

77:                                               ; preds = %75, %73
  %78 = phi i32 [ %74, %73 ], [ %76, %75 ]
  br label %79

79:                                               ; preds = %77, %67
  %80 = phi i32 [ %68, %67 ], [ %78, %77 ]
  %81 = load ptr, ptr %16, align 8, !tbaa !10
  %82 = getelementptr inbounds nuw %struct._lv_table_t, ptr %81, i32 0, i32 4
  %83 = load ptr, ptr %82, align 8, !tbaa !24
  %84 = load i32, ptr %5, align 4, !tbaa !25
  %85 = zext i32 %84 to i64
  %86 = getelementptr inbounds nuw i32, ptr %83, i64 %85
  store i32 %80, ptr %86, align 4, !tbaa !25
  %87 = load i32, ptr %18, align 4, !tbaa !25
  %88 = load ptr, ptr %16, align 8, !tbaa !10
  %89 = getelementptr inbounds nuw %struct._lv_table_t, ptr %88, i32 0, i32 4
  %90 = load ptr, ptr %89, align 8, !tbaa !24
  %91 = load i32, ptr %5, align 4, !tbaa !25
  %92 = zext i32 %91 to i64
  %93 = getelementptr inbounds nuw i32, ptr %90, i64 %92
  %94 = load i32, ptr %93, align 4, !tbaa !25
  %95 = icmp eq i32 %87, %94
  br i1 %95, label %96, label %109

96:                                               ; preds = %79
  call void @llvm.lifetime.start.p0(i64 16, ptr %19) #6
  %97 = load ptr, ptr %4, align 8, !tbaa !8
  %98 = load i32, ptr %5, align 4, !tbaa !25
  %99 = load i32, ptr %6, align 4, !tbaa !25
  call void @get_cell_area(ptr noundef %97, i32 noundef %98, i32 noundef %99, ptr noundef %19)
  %100 = load ptr, ptr %4, align 8, !tbaa !8
  %101 = getelementptr inbounds nuw %struct._lv_obj_t, ptr %100, i32 0, i32 5
  %102 = getelementptr inbounds nuw %struct.lv_area_t, ptr %101, i32 0, i32 0
  %103 = load i32, ptr %102, align 8, !tbaa !57
  %104 = load ptr, ptr %4, align 8, !tbaa !8
  %105 = getelementptr inbounds nuw %struct._lv_obj_t, ptr %104, i32 0, i32 5
  %106 = getelementptr inbounds nuw %struct.lv_area_t, ptr %105, i32 0, i32 1
  %107 = load i32, ptr %106, align 4, !tbaa !58
  call void @lv_area_move(ptr noundef %19, i32 noundef %103, i32 noundef %107)
  %108 = load ptr, ptr %4, align 8, !tbaa !8
  call void @lv_obj_invalidate_area(ptr noundef %108, ptr noundef %19)
  call void @llvm.lifetime.end.p0(i64 16, ptr %19) #6
  br label %113

109:                                              ; preds = %79
  %110 = load ptr, ptr %4, align 8, !tbaa !8
  %111 = call zeroext i1 @lv_obj_refresh_self_size(ptr noundef %110)
  %112 = load ptr, ptr %4, align 8, !tbaa !8
  call void @lv_obj_invalidate(ptr noundef %112)
  br label %113

113:                                              ; preds = %109, %96
  call void @llvm.lifetime.end.p0(i64 4, ptr %18) #6
  call void @llvm.lifetime.end.p0(i64 4, ptr %17) #6
  call void @llvm.lifetime.end.p0(i64 8, ptr %16) #6
  call void @llvm.lifetime.end.p0(i64 4, ptr %15) #6
  call void @llvm.lifetime.end.p0(i64 4, ptr %14) #6
  call void @llvm.lifetime.end.p0(i64 8, ptr %13) #6
  call void @llvm.lifetime.end.p0(i64 4, ptr %12) #6
  call void @llvm.lifetime.end.p0(i64 4, ptr %11) #6
  call void @llvm.lifetime.end.p0(i64 4, ptr %10) #6
  call void @llvm.lifetime.end.p0(i64 4, ptr %9) #6
  call void @llvm.lifetime.end.p0(i64 4, ptr %8) #6
  call void @llvm.lifetime.end.p0(i64 4, ptr %7) #6
  ret void
}