; Function Attrs: nounwind uwtable
define internal fastcc void @refr_cell_size(ptr noundef nonnull %0, i32 noundef %1, i32 noundef %2) unnamed_addr #0 {
  %4 = alloca %struct.lv_area_t, align 4
  %5 = tail call ptr @lv_obj_get_style_prop(ptr noundef nonnull %0, i32 noundef 327680, i8 noundef zeroext 18) #9
  %6 = ptrtoint ptr %5 to i64
  %.sroa.0.0.extract.trunc.i = trunc i64 %6 to i32
  %7 = tail call ptr @lv_obj_get_style_prop(ptr noundef nonnull %0, i32 noundef 327680, i8 noundef zeroext 19) #9
  %8 = ptrtoint ptr %7 to i64
  %.sroa.0.0.extract.trunc.i44 = trunc i64 %8 to i32
  %9 = tail call ptr @lv_obj_get_style_prop(ptr noundef nonnull %0, i32 noundef 327680, i8 noundef zeroext 16) #9
  %10 = ptrtoint ptr %9 to i64
  %.sroa.0.0.extract.trunc.i45 = trunc i64 %10 to i32
  %11 = tail call ptr @lv_obj_get_style_prop(ptr noundef nonnull %0, i32 noundef 327680, i8 noundef zeroext 17) #9
  %12 = ptrtoint ptr %11 to i64
  %.sroa.0.0.extract.trunc.i46 = trunc i64 %12 to i32
  %13 = tail call ptr @lv_obj_get_style_prop(ptr noundef nonnull %0, i32 noundef 327680, i8 noundef zeroext 91) #9
  %14 = ptrtoint ptr %13 to i64
  %.sroa.0.0.extract.trunc.i47 = trunc i64 %14 to i32
  %15 = tail call ptr @lv_obj_get_style_prop(ptr noundef nonnull %0, i32 noundef 327680, i8 noundef zeroext 92) #9
  %16 = ptrtoint ptr %15 to i64
  %.sroa.0.0.extract.trunc.i48 = trunc i64 %16 to i32
  %17 = tail call ptr @lv_obj_get_style_prop(ptr noundef nonnull %0, i32 noundef 327680, i8 noundef zeroext 90) #9
  %18 = tail call ptr @lv_obj_get_style_prop(ptr noundef nonnull %0, i32 noundef 327680, i8 noundef zeroext 6) #9
  %19 = ptrtoint ptr %18 to i64
  %.sroa.0.0.extract.trunc.i49 = trunc i64 %19 to i32
  %20 = tail call ptr @lv_obj_get_style_prop(ptr noundef nonnull %0, i32 noundef 327680, i8 noundef zeroext 7) #9
  %21 = ptrtoint ptr %20 to i64
  %.sroa.0.0.extract.trunc.i50 = trunc i64 %21 to i32
  %22 = tail call fastcc i32 @get_row_height(ptr noundef nonnull %0, i32 noundef %1, ptr noundef %17, i32 noundef %.sroa.0.0.extract.trunc.i47, i32 noundef %.sroa.0.0.extract.trunc.i48, i32 noundef %.sroa.0.0.extract.trunc.i, i32 noundef %.sroa.0.0.extract.trunc.i44, i32 noundef %.sroa.0.0.extract.trunc.i45, i32 noundef %.sroa.0.0.extract.trunc.i46)
  %23 = getelementptr inbounds nuw i8, ptr %0, i64 80
  %24 = load ptr, ptr %23, align 8, !tbaa !20
  %25 = zext i32 %1 to i64
  %26 = getelementptr inbounds nuw i32, ptr %24, i64 %25
  %27 = load i32, ptr %26, align 4, !tbaa !21
  %28 = tail call i32 @llvm.smin.i32(i32 %22, i32 %.sroa.0.0.extract.trunc.i50)
  %. = tail call i32 @llvm.smax.i32(i32 %28, i32 %.sroa.0.0.extract.trunc.i49)
  store i32 %., ptr %26, align 4, !tbaa !21
  %29 = icmp eq i32 %27, %.
  br i1 %29, label %30, label %35

30:                                               ; preds = %3
  call void @llvm.lifetime.start.p0(i64 16, ptr nonnull %4) #9
  call fastcc void @get_cell_area(ptr noundef nonnull %0, i32 noundef %1, i32 noundef %2, ptr noundef %4)
  %31 = getelementptr inbounds nuw i8, ptr %0, i64 40
  %32 = load i32, ptr %31, align 8, !tbaa !37
  %33 = getelementptr inbounds nuw i8, ptr %0, i64 44
  %34 = load i32, ptr %33, align 4, !tbaa !39
  call void @lv_area_move(ptr noundef nonnull %4, i32 noundef %32, i32 noundef %34) #9
  call void @lv_obj_invalidate_area(ptr noundef nonnull %0, ptr noundef nonnull %4) #9
  call void @llvm.lifetime.end.p0(i64 16, ptr nonnull %4) #9
  br label %37

35:                                               ; preds = %3
  %36 = tail call zeroext i1 @lv_obj_refresh_self_size(ptr noundef nonnull %0) #9
  tail call void @lv_obj_invalidate(ptr noundef nonnull %0) #9
  br label %37

37:                                               ; preds = %35, %30
  ret void
}